target datalayout = "e-m:e-p270:32:32-p271:32:32-p272:64:64-i64:64-i128:128-f80:128-n8:16:32:64-S128"
target triple = "x86_64-pc-linux-gnu"

%"class.absl::uint128" = type { i64, i64 }
%"class.absl::FunctionRef" = type { %"union.absl::functional_internal::VoidPtr", ptr }
%"union.absl::functional_internal::VoidPtr" = type { ptr }
%class.anon = type { ptr }
%"class.absl::FunctionRef.0" = type { %"union.absl::functional_internal::VoidPtr", ptr }
%class.anon.1 = type <{ %"class.absl::FunctionRef", %"class.absl::uint128", i32, [12 x i8] }>

; Function Attrs: mustprogress nounwind uwtable
define internal void @_ZN4absl19functional_internal13AssertNonNullIZNS_19str_format_internal12_GLOBAL__N_115BinaryToDecimal13RunConversionENS_7uint128EiNS_11FunctionRefIFvS4_EEEEUlNS_4SpanIjEEE_EEvRKT_(ptr noundef nonnull align 16 dereferenceable(36) %0) #2 {
  %2 = alloca ptr, align 8
  store ptr %0, ptr %2, align 8, !tbaa !95
  ret void
}

; Function Attrs: mustprogress uwtable
define internal void @_ZN4absl19str_format_internal12_GLOBAL__N_110StackArray15RunWithCapacityEmNS_11FunctionRefIFvNS_4SpanIjEEEEE(i64 noundef %0, ptr %1, ptr %2) #0 align 2 {
  %4 = alloca %"class.absl::FunctionRef.0", align 8
  %5 = alloca i64, align 8
  %6 = alloca i64, align 8
  %7 = alloca %"class.absl::FunctionRef.0", align 8
  %8 = alloca i32, align 4
  %9 = alloca %"class.absl::FunctionRef.0", align 8
  %10 = alloca %"class.absl::FunctionRef.0", align 8
  %11 = alloca %"class.absl::FunctionRef.0", align 8
  %12 = alloca %"class.absl::FunctionRef.0", align 8
  %13 = getelementptr inbounds nuw { ptr, ptr }, ptr %4, i32 0, i32 0
  store ptr %1, ptr %13, align 8
  %14 = getelementptr inbounds nuw { ptr, ptr }, ptr %4, i32 0, i32 1
  store ptr %2, ptr %14, align 8
  store i64 %0, ptr %5, align 8, !tbaa !14
  call void @llvm.lifetime.start.p0(i64 8, ptr %6) #17
  %15 = load i64, ptr %5, align 8, !tbaa !14
  %16 = add i64 %15, 128
  %17 = sub i64 %16, 1
  %18 = udiv i64 %17, 128
  store i64 %18, ptr %6, align 8, !tbaa !14
  %19 = load i64, ptr %6, align 8, !tbaa !14
  switch i64 %19, label %45 [
    i64 1, label %20
    i64 2, label %25
    i64 3, label %30
    i64 4, label %35
    i64 5, label %40
  ]

20:                                               ; preds = %3
  call void @llvm.memcpy.p0.p0.i64(ptr align 8 %7, ptr align 8 %4, i64 16, i1 false), !tbaa.struct !94
  %21 = getelementptr inbounds nuw { ptr, ptr }, ptr %7, i32 0, i32 0
  %22 = load ptr, ptr %21, align 8
  %23 = getelementptr inbounds nuw { ptr, ptr }, ptr %7, i32 0, i32 1
  %24 = load ptr, ptr %23, align 8
  call void @_ZN4absl19str_format_internal12_GLOBAL__N_110StackArray19RunWithCapacityImplILm1EEEvNS_11FunctionRefIFvNS_4SpanIjEEEEE(ptr %22, ptr %24)
  store i32 1, ptr %8, align 4
  br label %46

25:                                               ; preds = %3
  call void @llvm.memcpy.p0.p0.i64(ptr align 8 %9, ptr align 8 %4, i64 16, i1 false), !tbaa.struct !94
  %26 = getelementptr inbounds nuw { ptr, ptr }, ptr %9, i32 0, i32 0
  %27 = load ptr, ptr %26, align 8
  %28 = getelementptr inbounds nuw { ptr, ptr }, ptr %9, i32 0, i32 1
  %29 = load ptr, ptr %28, align 8
  call void @_ZN4absl19str_format_internal12_GLOBAL__N_110StackArray19RunWithCapacityImplILm2EEEvNS_11FunctionRefIFvNS_4SpanIjEEEEE(ptr %27, ptr %29)
  store i32 1, ptr %8, align 4
  br label %46

30:                                               ; preds = %3
  call void @llvm.memcpy.p0.p0.i64(ptr align 8 %10, ptr align 8 %4, i64 16, i1 false), !tbaa.struct !94
  %31 = getelementptr inbounds nuw { ptr, ptr }, ptr %10, i32 0, i32 0
  %32 = load ptr, ptr %31, align 8
  %33 = getelementptr inbounds nuw { ptr, ptr }, ptr %10, i32 0, i32 1
  %34 = load ptr, ptr %33, align 8
  call void @_ZN4absl19str_format_internal12_GLOBAL__N_110StackArray19RunWithCapacityImplILm3EEEvNS_11FunctionRefIFvNS_4SpanIjEEEEE(ptr %32, ptr %34)
  store i32 1, ptr %8, align 4
  br label %46

35:                                               ; preds = %3
  call void @llvm.memcpy.p0.p0.i64(ptr align 8 %11, ptr align 8 %4, i64 16, i1 false), !tbaa.struct !94
  %36 = getelementptr inbounds nuw { ptr, ptr }, ptr %11, i32 0, i32 0
  %37 = load ptr, ptr %36, align 8
  %38 = getelementptr inbounds nuw { ptr, ptr }, ptr %11, i32 0, i32 1
  %39 = load ptr, ptr %38, align 8
  call void @_ZN4absl19str_format_internal12_GLOBAL__N_110StackArray19RunWithCapacityImplILm4EEEvNS_11FunctionRefIFvNS_4SpanIjEEEEE(ptr %37, ptr %39)
  store i32 1, ptr %8, align 4
  br label %46

40:                                               ; preds = %3
  call void @llvm.memcpy.p0.p0.i64(ptr align 8 %12, ptr align 8 %4, i64 16, i1 false), !tbaa.struct !94
  %41 = getelementptr inbounds nuw { ptr, ptr }, ptr %12, i32 0, i32 0
  %42 = load ptr, ptr %41, align 8
  %43 = getelementptr inbounds nuw { ptr, ptr }, ptr %12, i32 0, i32 1
  %44 = load ptr, ptr %43, align 8
  call void @_ZN4absl19str_format_internal12_GLOBAL__N_110StackArray19RunWithCapacityImplILm5EEEvNS_11FunctionRefIFvNS_4SpanIjEEEEE(ptr %42, ptr %44)
  store i32 1, ptr %8, align 4
  br label %46

45:                                               ; preds = %3
  store i32 0, ptr %8, align 4
  br label %46

46:                                               ; preds = %45, %40, %35, %30, %25, %20
  call void @llvm.lifetime.end.p0(i64 8, ptr %6) #17
  %47 = load i32, ptr %8, align 4
  switch i32 %47, label %49 [
    i32 0, label %48
    i32 1, label %48
  ]

48:                                               ; preds = %46, %46
  ret void

49:                                               ; preds = %46
  unreachable
}

; Function Attrs: mustprogress uwtable
define internal void @_ZN4absl11FunctionRefIFvNS_4SpanIjEEEEC2IZNS_19str_format_internal12_GLOBAL__N_115BinaryToDecimal13RunConversionENS_7uint128EiNS0_IFvS8_EEEEUlS2_E_vEERKT_(ptr noundef nonnull align 8 dereferenceable(16) %0, ptr noundef nonnull align 16 dereferenceable(36) %1) unnamed_addr #0 align 2 {
  %3 = alloca ptr, align 8
  %4 = alloca ptr, align 8
  store ptr %0, ptr %3, align 8, !tbaa !102
  store ptr %1, ptr %4, align 8, !tbaa !95
  %5 = load ptr, ptr %3, align 8
  %6 = getelementptr inbounds nuw %"class.absl::FunctionRef.0", ptr %5, i32 0, i32 1
  store ptr @_ZN4absl19functional_internal12InvokeObjectIZNS_19str_format_internal12_GLOBAL__N_115BinaryToDecimal13RunConversionENS_7uint128EiNS_11FunctionRefIFvS4_EEEEUlNS_4SpanIjEEE_vJSA_EEET0_NS0_7VoidPtrEDpNS0_8ForwardTIT1_E4typeE, ptr %6, align 8, !tbaa !104
  %7 = load ptr, ptr %4, align 8, !tbaa !95
  call void @_ZN4absl19functional_internal13AssertNonNullIZNS_19str_format_internal12_GLOBAL__N_115BinaryToDecimal13RunConversionENS_7uint128EiNS_11FunctionRefIFvS4_EEEEUlNS_4SpanIjEEE_EEvRKT_(ptr noundef nonnull align 16 dereferenceable(36) %7)
  %8 = load ptr, ptr %4, align 8, !tbaa !95
  %9 = getelementptr inbounds nuw %"class.absl::FunctionRef.0", ptr %5, i32 0, i32 0
  store ptr %8, ptr %9, align 8, !tbaa !13
  ret void
}

; Function Attrs: mustprogress nounwind uwtable
define internal noundef i64 @_ZN4absl19str_format_internal12_GLOBAL__N_115BinaryToDecimal12ChunksNeededEi(i32 noundef %0) #2 align 2 {
  %2 = alloca i32, align 4
  store i32 %0, ptr %2, align 4, !tbaa !16
  %3 = load i32, ptr %2, align 4, !tbaa !16
  %4 = add nsw i32 128, %3
  %5 = add nsw i32 %4, 31
  %6 = sdiv i32 %5, 32
  %7 = mul nsw i32 %6, 11
  %8 = sdiv i32 %7, 10
  %9 = sext i32 %8 to i64
  ret i64 %9
}

; Function Attrs: mustprogress nounwind uwtable
define internal void @"_ZN4absl19functional_internal13AssertNonNullIZNS_19str_format_internal12_GLOBAL__N_122FormatFPositiveExpSlowENS_7uint128EiRKNS3_11FormatStateEE3$_0EEvRKT_"(ptr noundef nonnull align 8 dereferenceable(8) %0) #2 {
  %2 = alloca ptr, align 8
  store ptr %0, ptr %2, align 8, !tbaa !95
  ret void
}

; Function Attrs: mustprogress uwtable
define internal void @_ZN4absl19str_format_internal12_GLOBAL__N_115BinaryToDecimal13RunConversionENS_7uint128EiNS_11FunctionRefIFvS2_EEE(i64 %0, i64 %1, i32 noundef %2, ptr %3, ptr %4) #0 align 2 {
  %6 = alloca %"class.absl::uint128", align 16
  %7 = alloca %"class.absl::FunctionRef", align 8
  %8 = alloca i32, align 4
  %9 = alloca %"class.absl::FunctionRef.0", align 8
  %10 = alloca %class.anon.1, align 16
  %11 = getelementptr inbounds nuw { i64, i64 }, ptr %6, i32 0, i32 0
  store i64 %0, ptr %11, align 16
  %12 = getelementptr inbounds nuw { i64, i64 }, ptr %6, i32 0, i32 1
  store i64 %1, ptr %12, align 8
  %13 = getelementptr inbounds nuw { ptr, ptr }, ptr %7, i32 0, i32 0
  store ptr %3, ptr %13, align 8
  %14 = getelementptr inbounds nuw { ptr, ptr }, ptr %7, i32 0, i32 1
  store ptr %4, ptr %14, align 8
  store i32 %2, ptr %8, align 4, !tbaa !16
  %15 = load i32, ptr %8, align 4, !tbaa !16
  %16 = call noundef i64 @_ZN4absl19str_format_internal12_GLOBAL__N_115BinaryToDecimal12ChunksNeededEi(i32 noundef %15)
  call void @llvm.lifetime.start.p0(i64 48, ptr %10) #17
  %17 = getelementptr inbounds nuw %class.anon.1, ptr %10, i32 0, i32 0
  call void @llvm.memcpy.p0.p0.i64(ptr align 16 %17, ptr align 8 %7, i64 16, i1 false), !tbaa.struct !94
  %18 = getelementptr inbounds nuw %class.anon.1, ptr %10, i32 0, i32 1
  call void @llvm.memcpy.p0.p0.i64(ptr align 16 %18, ptr align 16 %6, i64 16, i1 false), !tbaa.struct !20
  %19 = getelementptr inbounds nuw %class.anon.1, ptr %10, i32 0, i32 2
  %20 = load i32, ptr %8, align 4, !tbaa !16
  store i32 %20, ptr %19, align 16, !tbaa !96
  call void @_ZN4absl11FunctionRefIFvNS_4SpanIjEEEEC2IZNS_19str_format_internal12_GLOBAL__N_115BinaryToDecimal13RunConversionENS_7uint128EiNS0_IFvS8_EEEEUlS2_E_vEERKT_(ptr noundef nonnull align 8 dereferenceable(16) %9, ptr noundef nonnull align 16 dereferenceable(36) %10)
  %21 = getelementptr inbounds nuw { ptr, ptr }, ptr %9, i32 0, i32 0
  %22 = load ptr, ptr %21, align 8
  %23 = getelementptr inbounds nuw { ptr, ptr }, ptr %9, i32 0, i32 1
  %24 = load ptr, ptr %23, align 8
  call void @_ZN4absl19str_format_internal12_GLOBAL__N_110StackArray15RunWithCapacityEmNS_11FunctionRefIFvNS_4SpanIjEEEEE(i64 noundef %16, ptr %22, ptr %24)
  call void @llvm.lifetime.end.p0(i64 48, ptr %10) #17
  ret void
}

; Function Attrs: mustprogress uwtable
define internal void @"_ZN4absl11FunctionRefIFvNS_19str_format_internal12_GLOBAL__N_115BinaryToDecimalEEEC2IZNS2_22FormatFPositiveExpSlowENS_7uint128EiRKNS2_11FormatStateEE3$_0vEERKT_"(ptr noundef nonnull align 8 dereferenceable(16) %0, ptr noundef nonnull align 8 dereferenceable(8) %1) unnamed_addr #0 align 2 {
  %3 = alloca ptr, align 8
  %4 = alloca ptr, align 8
  store ptr %0, ptr %3, align 8, !tbaa !99
  store ptr %1, ptr %4, align 8, !tbaa !95
  %5 = load ptr, ptr %3, align 8
  %6 = getelementptr inbounds nuw %"class.absl::FunctionRef", ptr %5, i32 0, i32 1
  store ptr @"_ZN4absl19functional_internal12InvokeObjectIZNS_19str_format_internal12_GLOBAL__N_122FormatFPositiveExpSlowENS_7uint128EiRKNS3_11FormatStateEE3$_0vJNS3_15BinaryToDecimalEEEET0_NS0_7VoidPtrEDpNS0_8ForwardTIT1_E4typeE", ptr %6, align 8, !tbaa !101
  %7 = load ptr, ptr %4, align 8, !tbaa !95
  call void @"_ZN4absl19functional_internal13AssertNonNullIZNS_19str_format_internal12_GLOBAL__N_122FormatFPositiveExpSlowENS_7uint128EiRKNS3_11FormatStateEE3$_0EEvRKT_"(ptr noundef nonnull align 8 dereferenceable(8) %7)
  %8 = load ptr, ptr %4, align 8, !tbaa !95
  %9 = getelementptr inbounds nuw %"class.absl::FunctionRef", ptr %5, i32 0, i32 0
  store ptr %8, ptr %9, align 8, !tbaa !13
  ret void
}

; Function Attrs: mustprogress uwtable
define internal void @_ZN4absl19str_format_internal12_GLOBAL__N_122FormatFPositiveExpSlowENS_7uint128EiRKNS1_11FormatStateE(i64 %0, i64 %1, i32 noundef %2, ptr noundef nonnull align 8 dereferenceable(32) %3) #0 {
  %5 = alloca %"class.absl::uint128", align 16
  %6 = alloca i32, align 4
  %7 = alloca ptr, align 8
  %8 = alloca %"class.absl::uint128", align 16
  %9 = alloca %"class.absl::FunctionRef", align 8
  %10 = alloca %class.anon, align 8
  %11 = getelementptr inbounds nuw { i64, i64 }, ptr %5, i32 0, i32 0
  store i64 %0, ptr %11, align 16
  %12 = getelementptr inbounds nuw { i64, i64 }, ptr %5, i32 0, i32 1
  store i64 %1, ptr %12, align 8
  store i32 %2, ptr %6, align 4, !tbaa !16
  store ptr %3, ptr %7, align 8, !tbaa !57
  call void @llvm.memcpy.p0.p0.i64(ptr align 16 %8, ptr align 16 %5, i64 16, i1 false), !tbaa.struct !20
  %13 = load i32, ptr %6, align 4, !tbaa !16
  call void @llvm.lifetime.start.p0(i64 8, ptr %10) #17
  %14 = getelementptr inbounds nuw %class.anon, ptr %10, i32 0, i32 0
  %15 = load ptr, ptr %7, align 8, !tbaa !57
  store ptr %15, ptr %14, align 8, !tbaa !57
  call void @"_ZN4absl11FunctionRefIFvNS_19str_format_internal12_GLOBAL__N_115BinaryToDecimalEEEC2IZNS2_22FormatFPositiveExpSlowENS_7uint128EiRKNS2_11FormatStateEE3$_0vEERKT_"(ptr noundef nonnull align 8 dereferenceable(16) %9, ptr noundef nonnull align 8 dereferenceable(8) %10)
  %16 = getelementptr inbounds nuw { i64, i64 }, ptr %8, i32 0, i32 0
  %17 = load i64, ptr %16, align 16
  %18 = getelementptr inbounds nuw { i64, i64 }, ptr %8, i32 0, i32 1
  %19 = load i64, ptr %18, align 8
  %20 = getelementptr inbounds nuw { ptr, ptr }, ptr %9, i32 0, i32 0
  %21 = load ptr, ptr %20, align 8
  %22 = getelementptr inbounds nuw { ptr, ptr }, ptr %9, i32 0, i32 1
  %23 = load ptr, ptr %22, align 8
  call void @_ZN4absl19str_format_internal12_GLOBAL__N_115BinaryToDecimal13RunConversionENS_7uint128EiNS_11FunctionRefIFvS2_EEE(i64 %17, i64 %19, i32 noundef %13, ptr %21, ptr %23)
  call void @llvm.lifetime.end.p0(i64 8, ptr %10) #17
  ret void
}