; Function Attrs: mustprogress uwtable
define internal fastcc void @_ZN4absl19str_format_internal12_GLOBAL__N_122FormatFPositiveExpSlowENS_7uint128EiRKNS1_11FormatStateE(i64 %0, i64 %1, i32 noundef range(i32 0, -2147483648) %2, ptr noundef nonnull align 8 dereferenceable(32) %3) unnamed_addr #0 {
  %5 = alloca %class.anon.1, align 16
  %6 = alloca %class.anon, align 8
  call void @llvm.lifetime.start.p0(i64 8, ptr nonnull %6) #19
  store ptr %3, ptr %6, align 8, !tbaa !78
  %7 = add nuw nsw i32 %2, 159
  %8 = lshr i32 %7, 5
  %9 = mul nuw nsw i32 %8, 11
  %10 = udiv i32 %9, 10
  call void @llvm.lifetime.start.p0(i64 48, ptr nonnull %5) #19
  store ptr %6, ptr %5, align 16, !tbaa !12
  %.sroa.2.0..sroa_idx.i = getelementptr inbounds nuw i8, ptr %5, i64 8
  store ptr @"_ZN4absl19functional_internal12InvokeObjectIZNS_19str_format_internal12_GLOBAL__N_122FormatFPositiveExpSlowENS_7uint128EiRKNS3_11FormatStateEE3$_0vJNS3_15BinaryToDecimalEEEET0_NS0_7VoidPtrEDpNS0_8ForwardTIT1_E4typeE", ptr %.sroa.2.0..sroa_idx.i, align 8, !tbaa !80
  %11 = getelementptr inbounds nuw i8, ptr %5, i64 16
  store i64 %0, ptr %11, align 16, !tbaa !24
  %.sroa.23.0..sroa_idx.i = getelementptr inbounds nuw i8, ptr %5, i64 24
  store i64 %1, ptr %.sroa.23.0..sroa_idx.i, align 8, !tbaa !24
  %12 = getelementptr inbounds nuw i8, ptr %5, i64 32
  store i32 %2, ptr %12, align 16, !tbaa !81
  %narrow.i = add nuw nsw i32 %10, 127
  %13 = lshr i32 %narrow.i, 7
  switch i32 %13, label %_ZN4absl19str_format_internal12_GLOBAL__N_115BinaryToDecimal13RunConversionENS_7uint128EiNS_11FunctionRefIFvS2_EEE.exit [
    i32 1, label %14
    i32 2, label %15
    i32 3, label %16
    i32 4, label %17
    i32 5, label %18
  ]

14:                                               ; preds = %4
  call fastcc void @_ZN4absl19str_format_internal12_GLOBAL__N_110StackArray19RunWithCapacityImplILm1EEEvNS_11FunctionRefIFvNS_4SpanIjEEEEE(ptr nonnull %5, ptr nonnull readonly @_ZN4absl19functional_internal12InvokeObjectIZNS_19str_format_internal12_GLOBAL__N_115BinaryToDecimal13RunConversionENS_7uint128EiNS_11FunctionRefIFvS4_EEEEUlNS_4SpanIjEEE_vJSA_EEET0_NS0_7VoidPtrEDpNS0_8ForwardTIT1_E4typeE)
  br label %_ZN4absl19str_format_internal12_GLOBAL__N_115BinaryToDecimal13RunConversionENS_7uint128EiNS_11FunctionRefIFvS2_EEE.exit

15:                                               ; preds = %4
  call fastcc void @_ZN4absl19str_format_internal12_GLOBAL__N_110StackArray19RunWithCapacityImplILm2EEEvNS_11FunctionRefIFvNS_4SpanIjEEEEE(ptr nonnull %5, ptr nonnull readonly @_ZN4absl19functional_internal12InvokeObjectIZNS_19str_format_internal12_GLOBAL__N_115BinaryToDecimal13RunConversionENS_7uint128EiNS_11FunctionRefIFvS4_EEEEUlNS_4SpanIjEEE_vJSA_EEET0_NS0_7VoidPtrEDpNS0_8ForwardTIT1_E4typeE)
  br label %_ZN4absl19str_format_internal12_GLOBAL__N_115BinaryToDecimal13RunConversionENS_7uint128EiNS_11FunctionRefIFvS2_EEE.exit

16:                                               ; preds = %4
  call fastcc void @_ZN4absl19str_format_internal12_GLOBAL__N_110StackArray19RunWithCapacityImplILm3EEEvNS_11FunctionRefIFvNS_4SpanIjEEEEE(ptr nonnull %5, ptr nonnull readonly @_ZN4absl19functional_internal12InvokeObjectIZNS_19str_format_internal12_GLOBAL__N_115BinaryToDecimal13RunConversionENS_7uint128EiNS_11FunctionRefIFvS4_EEEEUlNS_4SpanIjEEE_vJSA_EEET0_NS0_7VoidPtrEDpNS0_8ForwardTIT1_E4typeE)
  br label %_ZN4absl19str_format_internal12_GLOBAL__N_115BinaryToDecimal13RunConversionENS_7uint128EiNS_11FunctionRefIFvS2_EEE.exit

17:                                               ; preds = %4
  call fastcc void @_ZN4absl19str_format_internal12_GLOBAL__N_110StackArray19RunWithCapacityImplILm4EEEvNS_11FunctionRefIFvNS_4SpanIjEEEEE(ptr nonnull %5, ptr nonnull readonly @_ZN4absl19functional_internal12InvokeObjectIZNS_19str_format_internal12_GLOBAL__N_115BinaryToDecimal13RunConversionENS_7uint128EiNS_11FunctionRefIFvS4_EEEEUlNS_4SpanIjEEE_vJSA_EEET0_NS0_7VoidPtrEDpNS0_8ForwardTIT1_E4typeE)
  br label %_ZN4absl19str_format_internal12_GLOBAL__N_115BinaryToDecimal13RunConversionENS_7uint128EiNS_11FunctionRefIFvS2_EEE.exit

18:                                               ; preds = %4
  call fastcc void @_ZN4absl19str_format_internal12_GLOBAL__N_110StackArray19RunWithCapacityImplILm5EEEvNS_11FunctionRefIFvNS_4SpanIjEEEEE(ptr nonnull %5, ptr nonnull readonly @_ZN4absl19functional_internal12InvokeObjectIZNS_19str_format_internal12_GLOBAL__N_115BinaryToDecimal13RunConversionENS_7uint128EiNS_11FunctionRefIFvS4_EEEEUlNS_4SpanIjEEE_vJSA_EEET0_NS0_7VoidPtrEDpNS0_8ForwardTIT1_E4typeE)
  br label %_ZN4absl19str_format_internal12_GLOBAL__N_115BinaryToDecimal13RunConversionENS_7uint128EiNS_11FunctionRefIFvS2_EEE.exit

_ZN4absl19str_format_internal12_GLOBAL__N_115BinaryToDecimal13RunConversionENS_7uint128EiNS_11FunctionRefIFvS2_EEE.exit: ; preds = %4, %14, %15, %16, %17, %18
  call void @llvm.lifetime.end.p0(i64 48, ptr nonnull %5) #19
  call void @llvm.lifetime.end.p0(i64 8, ptr nonnull %6) #19
  ret void
}